target datalayout = "e-m:e-p270:32:32-p271:32:32-p272:64:64-i64:64-i128:128-f80:128-n8:16:32:64-S128"
target triple = "x86_64-unknown-linux-gnu"

%"struct.ue2::ParseMode" = type { i8, i8, i8, i8, i8, i8 }

; Function Attrs: mustprogress nounwind uwtable
define hidden noundef i32 @_ZN3ue219translateForUcpModeENS_15PredefinedClassERKNS_9ParseModeE(i32 noundef %in, ptr noundef nonnull align 1 dereferenceable(6) %mode) #0 {
entry:
  %retval = alloca i32, align 4
  %in.addr = alloca i32, align 4
  %mode.addr = alloca ptr, align 8
  store i32 %in, ptr %in.addr, align 4
  store ptr %mode, ptr %mode.addr, align 8
  %0 = load i32, ptr %in.addr, align 4
  switch i32 %0, label %sw.default [
    i32 0, label %sw.bb
    i32 1, label %sw.bb1
    i32 4, label %sw.bb2
    i32 6, label %sw.bb3
    i32 7, label %sw.bb4
    i32 9, label %sw.bb5
    i32 10, label %sw.bb6
    i32 11, label %sw.bb7
    i32 12, label %sw.bb8
    i32 13, label %sw.bb9
    i32 15, label %sw.bb14
  ]

sw.bb:                                            ; preds = %entry
  store i32 58, ptr %retval, align 4
  br label %return

sw.bb1:                                           ; preds = %entry
  store i32 26, ptr %retval, align 4
  br label %return

sw.bb2:                                           ; preds = %entry
  store i32 8, ptr %retval, align 4
  br label %return

sw.bb3:                                           ; preds = %entry
  store i32 38, ptr %retval, align 4
  br label %return

sw.bb4:                                           ; preds = %entry
  store i32 17, ptr %retval, align 4
  br label %return

sw.bb5:                                           ; preds = %entry
  %1 = load ptr, ptr %mode.addr, align 8
  %caseless = getelementptr inbounds %"struct.ue2::ParseMode", ptr %1, i32 0, i32 0
  %2 = load i8, ptr %caseless, align 1
  %tobool = trunc i8 %2 to i1
  br i1 %tobool, label %if.then, label %if.else

if.then:                                          ; preds = %sw.bb5
  store i32 26, ptr %retval, align 4
  br label %return

if.else:                                          ; preds = %sw.bb5
  store i32 27, ptr %retval, align 4
  br label %return

sw.bb6:                                           ; preds = %entry
  store i32 18, ptr %retval, align 4
  br label %return

sw.bb7:                                           ; preds = %entry
  store i32 19, ptr %retval, align 4
  br label %return

sw.bb8:                                           ; preds = %entry
  store i32 59, ptr %retval, align 4
  br label %return

sw.bb9:                                           ; preds = %entry
  %3 = load ptr, ptr %mode.addr, align 8
  %caseless10 = getelementptr inbounds %"struct.ue2::ParseMode", ptr %3, i32 0, i32 0
  %4 = load i8, ptr %caseless10, align 1
  %tobool11 = trunc i8 %4 to i1
  br i1 %tobool11, label %if.then12, label %if.else13

if.then12:                                        ; preds = %sw.bb9
  store i32 26, ptr %retval, align 4
  br label %return

if.else13:                                        ; preds = %sw.bb9
  store i32 31, ptr %retval, align 4
  br label %return

sw.bb14:                                          ; preds = %entry
  store i32 61, ptr %retval, align 4
  br label %return

sw.default:                                       ; preds = %entry
  %5 = load i32, ptr %in.addr, align 4
  store i32 %5, ptr %retval, align 4
  br label %return

return:                                           ; preds = %sw.default, %sw.bb14, %if.else13, %if.then12, %sw.bb8, %sw.bb7, %sw.bb6, %if.else, %if.then, %sw.bb4, %sw.bb3, %sw.bb2, %sw.bb1, %sw.bb
  %6 = load i32, ptr %retval, align 4
  ret i32 %6
}