; Function Attrs: mustprogress nofree norecurse nosync nounwind willreturn memory(argmem: read) uwtable
define hidden noundef i32 @_ZN3ue219translateForUcpModeENS_15PredefinedClassERKNS_9ParseModeE(i32 noundef %in, ptr nocapture noundef nonnull readonly align 1 dereferenceable(6) %mode) local_unnamed_addr #0 {
entry:
  switch i32 %in, label %sw.default [
    i32 0, label %return
    i32 1, label %sw.bb1
    i32 4, label %sw.bb2
    i32 6, label %sw.bb3
    i32 7, label %sw.bb4
    i32 9, label %sw.bb5
    i32 10, label %sw.bb6
    i32 11, label %sw.bb7
    i32 12, label %sw.bb8
    i32 13, label %sw.bb9
    i32 15, label %sw.bb14
  ]

sw.bb1:                                           ; preds = %entry
  br label %return

sw.bb2:                                           ; preds = %entry
  br label %return

sw.bb3:                                           ; preds = %entry
  br label %return

sw.bb4:                                           ; preds = %entry
  br label %return

sw.bb5:                                           ; preds = %entry
  %0 = load i8, ptr %mode, align 1
  %1 = and i8 %0, 1
  %tobool.not = icmp eq i8 %1, 0
  %. = select i1 %tobool.not, i32 27, i32 26
  br label %return

sw.bb6:                                           ; preds = %entry
  br label %return

sw.bb7:                                           ; preds = %entry
  br label %return

sw.bb8:                                           ; preds = %entry
  br label %return

sw.bb9:                                           ; preds = %entry
  %2 = load i8, ptr %mode, align 1
  %3 = and i8 %2, 1
  %tobool11.not = icmp eq i8 %3, 0
  %.3 = select i1 %tobool11.not, i32 31, i32 26
  br label %return

sw.bb14:                                          ; preds = %entry
  br label %return

sw.default:                                       ; preds = %entry
  br label %return

return:                                           ; preds = %sw.bb9, %sw.bb5, %entry, %sw.default, %sw.bb14, %sw.bb8, %sw.bb7, %sw.bb6, %sw.bb4, %sw.bb3, %sw.bb2, %sw.bb1
  %retval.0 = phi i32 [ %in, %sw.default ], [ 61, %sw.bb14 ], [ 59, %sw.bb8 ], [ 19, %sw.bb7 ], [ 18, %sw.bb6 ], [ 17, %sw.bb4 ], [ 38, %sw.bb3 ], [ 8, %sw.bb2 ], [ 26, %sw.bb1 ], [ 58, %entry ], [ %., %sw.bb5 ], [ %.3, %sw.bb9 ]
  ret i32 %retval.0
}